target datalayout = "e-m:e-p270:32:32-p271:32:32-p272:64:64-i64:64-i128:128-f80:128-n8:16:32:64-S128"
target triple = "x86_64-pc-linux-gnu"

%struct.FT_BBox_ = type { i64, i64, i64, i64 }
%struct.CFF_IndexRec_ = type { ptr, i64, i32, i32, i8, i64, i64, ptr, ptr }
%struct.CFF_SubFontRec_ = type { %struct.CFF_FontRecDictRec_, %struct.CFF_PrivateRec_, %struct.CFF_BlendRec_, i32, ptr, ptr, ptr, i32, i32, %struct.CFF_IndexRec_, ptr, i32 }
%struct.CFF_FontRecDictRec_ = type { i32, i32, i32, i32, i32, i32, i8, i64, i64, i64, i32, i32, %struct.FT_Matrix_, i8, i64, %struct.FT_Vector_, i64, %struct.FT_BBox_, i64, i64, i64, i64, i64, i64, i64, i32, i32, i32, i64, i64, i64, i64, i64, i64, i64, i64, i32, i16, i16, i64, i32 }
%struct.FT_Matrix_ = type { i64, i64, i64, i64 }
%struct.FT_Vector_ = type { i64, i64 }
%struct.CFF_PrivateRec_ = type { i8, i8, i8, i8, [14 x i64], [10 x i64], [14 x i64], [10 x i64], i64, i64, i64, i64, i64, i8, i8, [13 x i64], [13 x i64], i8, i64, i32, i32, i64, i64, i64, i64, i64, i32, ptr }
%struct.CFF_BlendRec_ = type { i8, i8, ptr, i32, i32, ptr, i32, ptr }
%struct.FT_StreamRec_ = type { ptr, i64, i64, %union.FT_StreamDesc_, %union.FT_StreamDesc_, ptr, ptr, ptr, ptr, ptr }
%union.FT_StreamDesc_ = type { i64 }

; Function Attrs: nounwind uwtable
define internal void @cff_index_done(ptr noundef %0) #0 {
  %2 = alloca ptr, align 8
  %3 = alloca ptr, align 8
  %4 = alloca ptr, align 8
  store ptr %0, ptr %2, align 8
  %5 = load ptr, ptr %2, align 8
  %6 = getelementptr inbounds %struct.CFF_IndexRec_, ptr %5, i32 0, i32 0
  %7 = load ptr, ptr %6, align 8
  %8 = icmp ne ptr %7, null
  br i1 %8, label %9, label %34

9:                                                ; preds = %1
  %10 = load ptr, ptr %2, align 8
  %11 = getelementptr inbounds %struct.CFF_IndexRec_, ptr %10, i32 0, i32 0
  %12 = load ptr, ptr %11, align 8
  store ptr %12, ptr %3, align 8
  %13 = load ptr, ptr %3, align 8
  %14 = getelementptr inbounds %struct.FT_StreamRec_, ptr %13, i32 0, i32 7
  %15 = load ptr, ptr %14, align 8
  store ptr %15, ptr %4, align 8
  %16 = load ptr, ptr %2, align 8
  %17 = getelementptr inbounds %struct.CFF_IndexRec_, ptr %16, i32 0, i32 8
  %18 = load ptr, ptr %17, align 8
  %19 = icmp ne ptr %18, null
  br i1 %19, label %20, label %24

20:                                               ; preds = %9
  %21 = load ptr, ptr %3, align 8
  %22 = load ptr, ptr %2, align 8
  %23 = getelementptr inbounds %struct.CFF_IndexRec_, ptr %22, i32 0, i32 8
  call void @FT_Stream_ReleaseFrame(ptr noundef %21, ptr noundef %23)
  br label %24

24:                                               ; preds = %20, %9
  br label %25

25:                                               ; preds = %24
  %26 = load ptr, ptr %4, align 8
  %27 = load ptr, ptr %2, align 8
  %28 = getelementptr inbounds %struct.CFF_IndexRec_, ptr %27, i32 0, i32 7
  %29 = load ptr, ptr %28, align 8
  call void @ft_mem_free(ptr noundef %26, ptr noundef %29)
  %30 = load ptr, ptr %2, align 8
  %31 = getelementptr inbounds %struct.CFF_IndexRec_, ptr %30, i32 0, i32 7
  store ptr null, ptr %31, align 8
  br label %32

32:                                               ; preds = %25
  %33 = load ptr, ptr %2, align 8
  call void @llvm.memset.p0.i64(ptr align 8 %33, i8 0, i64 64, i1 false)
  br label %34

34:                                               ; preds = %32, %1
  ret void
}

; Function Attrs: nounwind uwtable
define internal void @cff_subfont_done(ptr noundef %0, ptr noundef %1) #0 {
  %3 = alloca ptr, align 8
  %4 = alloca ptr, align 8
  store ptr %0, ptr %3, align 8
  store ptr %1, ptr %4, align 8
  %5 = load ptr, ptr %4, align 8
  %6 = icmp ne ptr %5, null
  br i1 %6, label %7, label %46

7:                                                ; preds = %2
  %8 = load ptr, ptr %4, align 8
  %9 = getelementptr inbounds %struct.CFF_SubFontRec_, ptr %8, i32 0, i32 9
  call void @cff_index_done(ptr noundef %9)
  br label %10

10:                                               ; preds = %7
  %11 = load ptr, ptr %3, align 8
  %12 = load ptr, ptr %4, align 8
  %13 = getelementptr inbounds %struct.CFF_SubFontRec_, ptr %12, i32 0, i32 10
  %14 = load ptr, ptr %13, align 8
  call void @ft_mem_free(ptr noundef %11, ptr noundef %14)
  %15 = load ptr, ptr %4, align 8
  %16 = getelementptr inbounds %struct.CFF_SubFontRec_, ptr %15, i32 0, i32 10
  store ptr null, ptr %16, align 8
  br label %17

17:                                               ; preds = %10
  br label %18

18:                                               ; preds = %17
  %19 = load ptr, ptr %3, align 8
  %20 = load ptr, ptr %4, align 8
  %21 = getelementptr inbounds %struct.CFF_SubFontRec_, ptr %20, i32 0, i32 2
  %22 = getelementptr inbounds %struct.CFF_BlendRec_, ptr %21, i32 0, i32 5
  %23 = load ptr, ptr %22, align 8
  call void @ft_mem_free(ptr noundef %19, ptr noundef %23)
  %24 = load ptr, ptr %4, align 8
  %25 = getelementptr inbounds %struct.CFF_SubFontRec_, ptr %24, i32 0, i32 2
  %26 = getelementptr inbounds %struct.CFF_BlendRec_, ptr %25, i32 0, i32 5
  store ptr null, ptr %26, align 8
  br label %27

27:                                               ; preds = %18
  br label %28

28:                                               ; preds = %27
  %29 = load ptr, ptr %3, align 8
  %30 = load ptr, ptr %4, align 8
  %31 = getelementptr inbounds %struct.CFF_SubFontRec_, ptr %30, i32 0, i32 2
  %32 = getelementptr inbounds %struct.CFF_BlendRec_, ptr %31, i32 0, i32 7
  %33 = load ptr, ptr %32, align 8
  call void @ft_mem_free(ptr noundef %29, ptr noundef %33)
  %34 = load ptr, ptr %4, align 8
  %35 = getelementptr inbounds %struct.CFF_SubFontRec_, ptr %34, i32 0, i32 2
  %36 = getelementptr inbounds %struct.CFF_BlendRec_, ptr %35, i32 0, i32 7
  store ptr null, ptr %36, align 8
  br label %37

37:                                               ; preds = %28
  br label %38

38:                                               ; preds = %37
  %39 = load ptr, ptr %3, align 8
  %40 = load ptr, ptr %4, align 8
  %41 = getelementptr inbounds %struct.CFF_SubFontRec_, ptr %40, i32 0, i32 5
  %42 = load ptr, ptr %41, align 8
  call void @ft_mem_free(ptr noundef %39, ptr noundef %42)
  %43 = load ptr, ptr %4, align 8
  %44 = getelementptr inbounds %struct.CFF_SubFontRec_, ptr %43, i32 0, i32 5
  store ptr null, ptr %44, align 8
  br label %45

45:                                               ; preds = %38
  br label %46

46:                                               ; preds = %45, %2
  ret void
}