; Function Attrs: nounwind uwtable
define internal fastcc void @cff_subfont_done(ptr noundef %0, ptr noundef %1) unnamed_addr #4 {
  %.not = icmp eq ptr %1, null
  br i1 %.not, label %23, label %3

3:                                                ; preds = %2
  %4 = getelementptr inbounds i8, ptr %1, i64 1144
  %5 = load ptr, ptr %4, align 8
  %.not.i = icmp eq ptr %5, null
  br i1 %.not.i, label %cff_index_done.exit, label %6

6:                                                ; preds = %3
  %7 = getelementptr inbounds i8, ptr %5, i64 56
  %8 = load ptr, ptr %7, align 8
  %9 = getelementptr inbounds i8, ptr %1, i64 1200
  %10 = load ptr, ptr %9, align 8
  %.not10.i = icmp eq ptr %10, null
  br i1 %.not10.i, label %12, label %11

11:                                               ; preds = %6
  tail call void @FT_Stream_ReleaseFrame(ptr noundef nonnull %5, ptr noundef nonnull %9) #20
  br label %12

12:                                               ; preds = %11, %6
  %13 = getelementptr inbounds i8, ptr %1, i64 1192
  %14 = load ptr, ptr %13, align 8
  tail call void @ft_mem_free(ptr noundef %8, ptr noundef %14) #20
  tail call void @llvm.memset.p0.i64(ptr noundef nonnull align 8 dereferenceable(64) %4, i8 0, i64 64, i1 false)
  br label %cff_index_done.exit

cff_index_done.exit:                              ; preds = %3, %12
  %15 = getelementptr inbounds i8, ptr %1, i64 1208
  %16 = load ptr, ptr %15, align 8
  tail call void @ft_mem_free(ptr noundef %0, ptr noundef %16) #20
  store ptr null, ptr %15, align 8
  %17 = getelementptr inbounds i8, ptr %1, i64 1080
  %18 = load ptr, ptr %17, align 8
  tail call void @ft_mem_free(ptr noundef %0, ptr noundef %18) #20
  store ptr null, ptr %17, align 8
  %19 = getelementptr inbounds i8, ptr %1, i64 1096
  %20 = load ptr, ptr %19, align 8
  tail call void @ft_mem_free(ptr noundef %0, ptr noundef %20) #20
  store ptr null, ptr %19, align 8
  %21 = getelementptr inbounds i8, ptr %1, i64 1120
  %22 = load ptr, ptr %21, align 8
  tail call void @ft_mem_free(ptr noundef %0, ptr noundef %22) #20
  store ptr null, ptr %21, align 8
  br label %23

23:                                               ; preds = %cff_index_done.exit, %2
  ret void
}